target datalayout = "e-m:e-p270:32:32-p271:32:32-p272:64:64-i64:64-i128:128-f80:128-n8:16:32:64-S128"
target triple = "x86_64-pc-linux-gnu"

; Function Attrs: nounwind uwtable
define internal void @SDL_Convert51ToMono(ptr noundef %0, ptr noundef %1, i32 noundef %2) #0 {
  %4 = alloca ptr, align 8
  %5 = alloca ptr, align 8
  %6 = alloca i32, align 4
  %7 = alloca i32, align 4
  store ptr %0, ptr %4, align 8
  store ptr %1, ptr %5, align 8
  store i32 %2, ptr %6, align 4
  call void @llvm.lifetime.start.p0(i64 4, ptr %7) #7
  %8 = load i32, ptr %6, align 4
  store i32 %8, ptr %7, align 4
  br label %9

9:                                                ; preds = %39, %3
  %10 = load i32, ptr %7, align 4
  %11 = icmp ne i32 %10, 0
  br i1 %11, label %12, label %46

12:                                               ; preds = %9
  %13 = load ptr, ptr %5, align 8
  %14 = getelementptr inbounds float, ptr %13, i64 0
  %15 = load float, ptr %14, align 4
  %16 = load ptr, ptr %5, align 8
  %17 = getelementptr inbounds float, ptr %16, i64 1
  %18 = load float, ptr %17, align 4
  %19 = fmul float %18, 0x3FC5555560000000
  %20 = call float @llvm.fmuladd.f32(float %15, float 0x3FC5555560000000, float %19)
  %21 = load ptr, ptr %5, align 8
  %22 = getelementptr inbounds float, ptr %21, i64 2
  %23 = load float, ptr %22, align 4
  %24 = call float @llvm.fmuladd.f32(float %23, float 0x3FC5555560000000, float %20)
  %25 = load ptr, ptr %5, align 8
  %26 = getelementptr inbounds float, ptr %25, i64 3
  %27 = load float, ptr %26, align 4
  %28 = call float @llvm.fmuladd.f32(float %27, float 0x3FC5555560000000, float %24)
  %29 = load ptr, ptr %5, align 8
  %30 = getelementptr inbounds float, ptr %29, i64 4
  %31 = load float, ptr %30, align 4
  %32 = call float @llvm.fmuladd.f32(float %31, float 0x3FC5555560000000, float %28)
  %33 = load ptr, ptr %5, align 8
  %34 = getelementptr inbounds float, ptr %33, i64 5
  %35 = load float, ptr %34, align 4
  %36 = call float @llvm.fmuladd.f32(float %35, float 0x3FC5555560000000, float %32)
  %37 = load ptr, ptr %4, align 8
  %38 = getelementptr inbounds float, ptr %37, i64 0
  store float %36, ptr %38, align 4
  br label %39

39:                                               ; preds = %12
  %40 = load i32, ptr %7, align 4
  %41 = add nsw i32 %40, -1
  store i32 %41, ptr %7, align 4
  %42 = load ptr, ptr %5, align 8
  %43 = getelementptr inbounds float, ptr %42, i64 6
  store ptr %43, ptr %5, align 8
  %44 = load ptr, ptr %4, align 8
  %45 = getelementptr inbounds nuw float, ptr %44, i32 1
  store ptr %45, ptr %4, align 8
  br label %9, !llvm.loop !79

46:                                               ; preds = %9
  call void @llvm.lifetime.end.p0(i64 4, ptr %7) #7
  ret void
}